target datalayout = "e-m:e-p270:32:32-p271:32:32-p272:64:64-i64:64-i128:128-f80:128-n8:16:32:64-S128"
target triple = "x86_64-pc-linux-gnu"

%struct.CVodeMemRec = type { ptr, double, ptr, ptr, i32, i32, double, double, ptr, i32, i32, ptr, ptr, i32, i32, ptr, i32, i32, double, double, ptr, i32, i32, i32, i32, ptr, ptr, ptr, i32, i32, ptr, ptr, ptr, i32, double, i32, i32, double, ptr, ptr, ptr, i32, ptr, ptr, i32, i32, i32, double, ptr, ptr, ptr, [13 x ptr], ptr, ptr, ptr, ptr, ptr, ptr, ptr, ptr, ptr, [13 x ptr], ptr, ptr, ptr, ptr, [13 x ptr], ptr, ptr, ptr, ptr, ptr, i32, [13 x ptr], ptr, ptr, ptr, ptr, ptr, i32, i32, double, i32, i32, i32, i32, i32, double, double, double, double, double, double, double, double, [14 x double], [6 x double], [13 x double], double, double, double, double, double, double, double, double, i32, double, double, i32, double, double, ptr, i32, i64, i32, i32, i32, double, double, double, double, double, double, double, double, double, double, double, double, i64, i32, i64, i64, i64, i64, i64, i64, i64, i64, i64, ptr, i64, i64, ptr, i64, i64, ptr, i64, i64, i64, i64, i64, i64, i32, double, double, double, i64, i64, i64, i64, i64, i64, ptr, i32, ptr, i32, ptr, i32, ptr, i32, i32, i64, i32, ptr, i32, ptr, ptr, ptr, ptr, ptr, ptr, i32, i32, ptr, ptr, ptr, ptr, ptr, i64, double, i32, i32, i64, double, double, double, i32, i32, double, i32, i32, i32, i32, i32, i32, i32, i32, i32, i32, i32, i32, i32, i32, i32, i32, ptr, i64, i32, [6 x [4 x double]], i32, i64, ptr, i32, ptr, ptr, double, double, double, ptr, ptr, ptr, double, double, i32, i32, i64, ptr, i32, ptr, i32, i32, [13 x double], ptr, ptr, ptr, i32, ptr, i32 }

; Function Attrs: nounwind uwtable
define internal void @cvQuadFreeVectors(ptr noundef %0) #0 {
  %2 = alloca ptr, align 8
  %3 = alloca i32, align 4
  %4 = alloca i32, align 4
  store ptr %0, ptr %2, align 8, !tbaa !10
  call void @llvm.lifetime.start.p0(i64 4, ptr %3) #10
  call void @llvm.lifetime.start.p0(i64 4, ptr %4) #10
  %5 = load ptr, ptr %2, align 8, !tbaa !10
  %6 = getelementptr inbounds nuw %struct.CVodeMemRec, ptr %5, i32 0, i32 202
  %7 = load i32, ptr %6, align 4, !tbaa !108
  store i32 %7, ptr %4, align 4, !tbaa !3
  %8 = load ptr, ptr %2, align 8, !tbaa !10
  %9 = getelementptr inbounds nuw %struct.CVodeMemRec, ptr %8, i32 0, i32 62
  %10 = load ptr, ptr %9, align 8, !tbaa !223
  call void @N_VDestroy(ptr noundef %10)
  %11 = load ptr, ptr %2, align 8, !tbaa !10
  %12 = getelementptr inbounds nuw %struct.CVodeMemRec, ptr %11, i32 0, i32 64
  %13 = load ptr, ptr %12, align 8, !tbaa !224
  call void @N_VDestroy(ptr noundef %13)
  %14 = load ptr, ptr %2, align 8, !tbaa !10
  %15 = getelementptr inbounds nuw %struct.CVodeMemRec, ptr %14, i32 0, i32 63
  %16 = load ptr, ptr %15, align 8, !tbaa !225
  call void @N_VDestroy(ptr noundef %16)
  %17 = load ptr, ptr %2, align 8, !tbaa !10
  %18 = getelementptr inbounds nuw %struct.CVodeMemRec, ptr %17, i32 0, i32 65
  %19 = load ptr, ptr %18, align 8, !tbaa !226
  call void @N_VDestroy(ptr noundef %19)
  store i32 0, ptr %3, align 4, !tbaa !3
  br label %20

20:                                               ; preds = %31, %1
  %21 = load i32, ptr %3, align 4, !tbaa !3
  %22 = load i32, ptr %4, align 4, !tbaa !3
  %23 = icmp sle i32 %21, %22
  br i1 %23, label %24, label %34

24:                                               ; preds = %20
  %25 = load ptr, ptr %2, align 8, !tbaa !10
  %26 = getelementptr inbounds nuw %struct.CVodeMemRec, ptr %25, i32 0, i32 61
  %27 = load i32, ptr %3, align 4, !tbaa !3
  %28 = sext i32 %27 to i64
  %29 = getelementptr inbounds [13 x ptr], ptr %26, i64 0, i64 %28
  %30 = load ptr, ptr %29, align 8, !tbaa !151
  call void @N_VDestroy(ptr noundef %30)
  br label %31

31:                                               ; preds = %24
  %32 = load i32, ptr %3, align 4, !tbaa !3
  %33 = add nsw i32 %32, 1
  store i32 %33, ptr %3, align 4, !tbaa !3
  br label %20

34:                                               ; preds = %20
  %35 = load i32, ptr %4, align 4, !tbaa !3
  %36 = add nsw i32 %35, 5
  %37 = sext i32 %36 to i64
  %38 = load ptr, ptr %2, align 8, !tbaa !10
  %39 = getelementptr inbounds nuw %struct.CVodeMemRec, ptr %38, i32 0, i32 160
  %40 = load i64, ptr %39, align 8, !tbaa !219
  %41 = mul nsw i64 %37, %40
  %42 = load ptr, ptr %2, align 8, !tbaa !10
  %43 = getelementptr inbounds nuw %struct.CVodeMemRec, ptr %42, i32 0, i32 162
  %44 = load i64, ptr %43, align 8, !tbaa !110
  %45 = sub nsw i64 %44, %41
  store i64 %45, ptr %43, align 8, !tbaa !110
  %46 = load i32, ptr %4, align 4, !tbaa !3
  %47 = add nsw i32 %46, 5
  %48 = sext i32 %47 to i64
  %49 = load ptr, ptr %2, align 8, !tbaa !10
  %50 = getelementptr inbounds nuw %struct.CVodeMemRec, ptr %49, i32 0, i32 161
  %51 = load i64, ptr %50, align 8, !tbaa !220
  %52 = mul nsw i64 %48, %51
  %53 = load ptr, ptr %2, align 8, !tbaa !10
  %54 = getelementptr inbounds nuw %struct.CVodeMemRec, ptr %53, i32 0, i32 163
  %55 = load i64, ptr %54, align 8, !tbaa !111
  %56 = sub nsw i64 %55, %52
  store i64 %56, ptr %54, align 8, !tbaa !111
  %57 = load ptr, ptr %2, align 8, !tbaa !10
  %58 = getelementptr inbounds nuw %struct.CVodeMemRec, ptr %57, i32 0, i32 209
  %59 = load i32, ptr %58, align 8, !tbaa !115
  %60 = icmp ne i32 %59, 0
  br i1 %60, label %61, label %79

61:                                               ; preds = %34
  %62 = load ptr, ptr %2, align 8, !tbaa !10
  %63 = getelementptr inbounds nuw %struct.CVodeMemRec, ptr %62, i32 0, i32 20
  %64 = load ptr, ptr %63, align 8, !tbaa !229
  call void @N_VDestroy(ptr noundef %64)
  %65 = load ptr, ptr %2, align 8, !tbaa !10
  %66 = getelementptr inbounds nuw %struct.CVodeMemRec, ptr %65, i32 0, i32 160
  %67 = load i64, ptr %66, align 8, !tbaa !219
  %68 = load ptr, ptr %2, align 8, !tbaa !10
  %69 = getelementptr inbounds nuw %struct.CVodeMemRec, ptr %68, i32 0, i32 162
  %70 = load i64, ptr %69, align 8, !tbaa !110
  %71 = sub nsw i64 %70, %67
  store i64 %71, ptr %69, align 8, !tbaa !110
  %72 = load ptr, ptr %2, align 8, !tbaa !10
  %73 = getelementptr inbounds nuw %struct.CVodeMemRec, ptr %72, i32 0, i32 161
  %74 = load i64, ptr %73, align 8, !tbaa !220
  %75 = load ptr, ptr %2, align 8, !tbaa !10
  %76 = getelementptr inbounds nuw %struct.CVodeMemRec, ptr %75, i32 0, i32 163
  %77 = load i64, ptr %76, align 8, !tbaa !111
  %78 = sub nsw i64 %77, %74
  store i64 %78, ptr %76, align 8, !tbaa !111
  br label %79

79:                                               ; preds = %61, %34
  %80 = load ptr, ptr %2, align 8, !tbaa !10
  %81 = getelementptr inbounds nuw %struct.CVodeMemRec, ptr %80, i32 0, i32 209
  store i32 0, ptr %81, align 8, !tbaa !115
  call void @llvm.lifetime.end.p0(i64 4, ptr %4) #10
  call void @llvm.lifetime.end.p0(i64 4, ptr %3) #10
  ret void
}

; Function Attrs: nounwind uwtable
define void @CVodeQuadFree(ptr noundef %0) #0 {
  %2 = alloca ptr, align 8
  %3 = alloca ptr, align 8
  %4 = alloca i32, align 4
  store ptr %0, ptr %2, align 8, !tbaa !153
  call void @llvm.lifetime.start.p0(i64 8, ptr %3) #10
  %5 = load ptr, ptr %2, align 8, !tbaa !153
  %6 = icmp eq ptr %5, null
  br i1 %6, label %7, label %8

7:                                                ; preds = %1
  store i32 1, ptr %4, align 4
  br label %21

8:                                                ; preds = %1
  %9 = load ptr, ptr %2, align 8, !tbaa !153
  store ptr %9, ptr %3, align 8, !tbaa !10
  %10 = load ptr, ptr %3, align 8, !tbaa !10
  %11 = getelementptr inbounds nuw %struct.CVodeMemRec, ptr %10, i32 0, i32 210
  %12 = load i32, ptr %11, align 4, !tbaa !116
  %13 = icmp ne i32 %12, 0
  br i1 %13, label %14, label %20

14:                                               ; preds = %8
  %15 = load ptr, ptr %3, align 8, !tbaa !10
  call void @cvQuadFreeVectors(ptr noundef %15)
  %16 = load ptr, ptr %3, align 8, !tbaa !10
  %17 = getelementptr inbounds nuw %struct.CVodeMemRec, ptr %16, i32 0, i32 210
  store i32 0, ptr %17, align 4, !tbaa !116
  %18 = load ptr, ptr %3, align 8, !tbaa !10
  %19 = getelementptr inbounds nuw %struct.CVodeMemRec, ptr %18, i32 0, i32 14
  store i32 0, ptr %19, align 4, !tbaa !75
  br label %20

20:                                               ; preds = %14, %8
  store i32 0, ptr %4, align 4
  br label %21

21:                                               ; preds = %20, %7
  call void @llvm.lifetime.end.p0(i64 8, ptr %3) #10
  %22 = load i32, ptr %4, align 4
  switch i32 %22, label %24 [
    i32 0, label %23
    i32 1, label %23
  ]

23:                                               ; preds = %21, %21
  ret void

24:                                               ; preds = %21
  unreachable
}