; Function Attrs: nounwind uwtable
define void @CVodeQuadFree(ptr noundef captures(address_is_null) %0) local_unnamed_addr #0 {
  %2 = icmp eq ptr %0, null
  br i1 %2, label %48, label %3

3:                                                ; preds = %1
  %4 = getelementptr inbounds nuw i8, ptr %0, i64 2132
  %5 = load i32, ptr %4, align 4, !tbaa !149
  %.not = icmp eq i32 %5, 0
  br i1 %.not, label %48, label %6

6:                                                ; preds = %3
  %7 = getelementptr inbounds nuw i8, ptr %0, i64 2100
  %8 = load i32, ptr %7, align 4, !tbaa !50
  %9 = getelementptr inbounds nuw i8, ptr %0, i64 616
  %10 = load ptr, ptr %9, align 8, !tbaa !141
  tail call void @N_VDestroy(ptr noundef %10) #13
  %11 = getelementptr inbounds nuw i8, ptr %0, i64 632
  %12 = load ptr, ptr %11, align 8, !tbaa !142
  tail call void @N_VDestroy(ptr noundef %12) #13
  %13 = getelementptr inbounds nuw i8, ptr %0, i64 624
  %14 = load ptr, ptr %13, align 8, !tbaa !143
  tail call void @N_VDestroy(ptr noundef %14) #13
  %15 = getelementptr inbounds nuw i8, ptr %0, i64 640
  %16 = load ptr, ptr %15, align 8, !tbaa !144
  tail call void @N_VDestroy(ptr noundef %16) #13
  %.not24.i = icmp slt i32 %8, 0
  br i1 %.not24.i, label %._crit_edge.i, label %.lr.ph.i

.lr.ph.i:                                         ; preds = %6
  %17 = getelementptr inbounds nuw i8, ptr %0, i64 512
  %18 = add nuw i32 %8, 1
  %wide.trip.count.i = zext i32 %18 to i64
  br label %19

19:                                               ; preds = %19, %.lr.ph.i
  %indvars.iv.i = phi i64 [ 0, %.lr.ph.i ], [ %indvars.iv.next.i, %19 ]
  %20 = getelementptr inbounds nuw [13 x ptr], ptr %17, i64 0, i64 %indvars.iv.i
  %21 = load ptr, ptr %20, align 8, !tbaa !65
  tail call void @N_VDestroy(ptr noundef %21) #13
  %indvars.iv.next.i = add nuw nsw i64 %indvars.iv.i, 1
  %exitcond.not.i = icmp eq i64 %indvars.iv.next.i, %wide.trip.count.i
  br i1 %exitcond.not.i, label %._crit_edge.i, label %19

._crit_edge.i:                                    ; preds = %19, %6
  %22 = add nsw i32 %8, 5
  %23 = sext i32 %22 to i64
  %24 = getelementptr inbounds nuw i8, ptr %0, i64 1800
  %25 = load i64, ptr %24, align 8, !tbaa !139
  %26 = mul nsw i64 %25, %23
  %27 = getelementptr inbounds nuw i8, ptr %0, i64 1816
  %28 = load i64, ptr %27, align 8, !tbaa !52
  %29 = sub nsw i64 %28, %26
  store i64 %29, ptr %27, align 8, !tbaa !52
  %30 = getelementptr inbounds nuw i8, ptr %0, i64 1808
  %31 = load i64, ptr %30, align 8, !tbaa !140
  %32 = mul nsw i64 %31, %23
  %33 = getelementptr inbounds nuw i8, ptr %0, i64 1824
  %34 = load i64, ptr %33, align 8, !tbaa !53
  %35 = sub nsw i64 %34, %32
  store i64 %35, ptr %33, align 8, !tbaa !53
  %36 = getelementptr inbounds nuw i8, ptr %0, i64 2128
  %37 = load i32, ptr %36, align 8, !tbaa !153
  %.not23.i = icmp eq i32 %37, 0
  br i1 %.not23.i, label %cvQuadFreeVectors.exit, label %38

38:                                               ; preds = %._crit_edge.i
  %39 = getelementptr inbounds nuw i8, ptr %0, i64 128
  %40 = load ptr, ptr %39, align 8, !tbaa !154
  tail call void @N_VDestroy(ptr noundef %40) #13
  %41 = load i64, ptr %24, align 8, !tbaa !139
  %42 = load i64, ptr %27, align 8, !tbaa !52
  %43 = sub nsw i64 %42, %41
  store i64 %43, ptr %27, align 8, !tbaa !52
  %44 = load i64, ptr %30, align 8, !tbaa !140
  %45 = load i64, ptr %33, align 8, !tbaa !53
  %46 = sub nsw i64 %45, %44
  store i64 %46, ptr %33, align 8, !tbaa !53
  br label %cvQuadFreeVectors.exit

cvQuadFreeVectors.exit:                           ; preds = %._crit_edge.i, %38
  store i32 0, ptr %36, align 8, !tbaa !153
  store i32 0, ptr %4, align 4, !tbaa !149
  %47 = getelementptr inbounds nuw i8, ptr %0, i64 92
  store i32 0, ptr %47, align 4, !tbaa !148
  br label %48

48:                                               ; preds = %3, %cvQuadFreeVectors.exit, %1
  ret void
}